target datalayout = "e-m:e-p270:32:32-p271:32:32-p272:64:64-i64:64-i128:128-f80:128-n8:16:32:64-S128"
target triple = "x86_64-pc-linux-gnu"

%struct.FormData_pg_attribute = type { i32, %struct.nameData, i32, i16, i16, i32, i16, i8, i8, i8, i8, i8, i8, i8, i8, i8, i8, i8, i16, i32 }
%struct.nameData = type { [64 x i8] }
%struct.HeapTupleData = type { i32, %struct.ItemPointerData, i32, ptr }
%struct.ItemPointerData = type { %struct.BlockIdData, i16 }
%struct.BlockIdData = type { i16, i16 }
%struct.HeapTupleHeaderData = type { %union.anon, %struct.ItemPointerData, i16, i16, i8, [0 x i8] }
%union.anon = type { %struct.HeapTupleFields }
%struct.HeapTupleFields = type { i32, i32, %union.anon.0 }
%union.anon.0 = type { i32 }
%struct.ScanKeyData = type { i32, i16, i16, i32, i32, %struct.FmgrInfo, i64 }
%struct.FmgrInfo = type { ptr, i32, i16, i8, i8, i8, ptr, ptr, ptr }
%struct.FormData_pg_attrdef = type { i32, i32, i16 }

@.str = private unnamed_addr constant [52 x i8] c"cache lookup failed for attribute %d of relation %u\00", align 1
@.str.1 = private unnamed_addr constant [13 x i8] c"pg_attrdef.c\00", align 1
@.str.3 = private unnamed_addr constant [36 x i8] c"could not find tuple for attrdef %u\00", align 1
@__func__.RemoveAttrDefaultById = private unnamed_addr constant [22 x i8] c"RemoveAttrDefaultById\00", align 1

; Function Attrs: inlinehint nounwind uwtable
define internal i64 @Int16GetDatum(i16 noundef signext %0) #3 {
  %2 = alloca i16, align 2
  store i16 %0, ptr %2, align 2
  %3 = load i16, ptr %2, align 2
  %4 = sext i16 %3 to i64
  ret i64 %4
}

; Function Attrs: inlinehint nounwind uwtable
define internal ptr @GETSTRUCT(ptr noundef %0) #3 {
  %2 = alloca ptr, align 8
  store ptr %0, ptr %2, align 8
  %3 = load ptr, ptr %2, align 8
  %4 = getelementptr inbounds nuw %struct.HeapTupleData, ptr %3, i32 0, i32 3
  %5 = load ptr, ptr %4, align 8
  %6 = load ptr, ptr %2, align 8
  %7 = getelementptr inbounds nuw %struct.HeapTupleData, ptr %6, i32 0, i32 3
  %8 = load ptr, ptr %7, align 8
  %9 = getelementptr inbounds nuw %struct.HeapTupleHeaderData, ptr %8, i32 0, i32 4
  %10 = load i8, ptr %9, align 2
  %11 = zext i8 %10 to i32
  %12 = sext i32 %11 to i64
  %13 = getelementptr inbounds i8, ptr %5, i64 %12
  ret ptr %13
}

; Function Attrs: inlinehint nounwind uwtable
define internal i64 @ObjectIdGetDatum(i32 noundef %0) #3 {
  %2 = alloca i32, align 4
  store i32 %0, ptr %2, align 4
  %3 = load i32, ptr %2, align 4
  %4 = zext i32 %3 to i64
  ret i64 %4
}

; Function Attrs: nounwind uwtable
define dso_local void @RemoveAttrDefaultById(i32 noundef %0) #0 {
  %2 = alloca i32, align 4
  %3 = alloca ptr, align 8
  %4 = alloca ptr, align 8
  %5 = alloca ptr, align 8
  %6 = alloca [1 x %struct.ScanKeyData], align 16
  %7 = alloca ptr, align 8
  %8 = alloca ptr, align 8
  %9 = alloca i32, align 4
  %10 = alloca i16, align 2
  store i32 %0, ptr %2, align 4
  call void @llvm.lifetime.start.p0(i64 8, ptr %3) #7
  call void @llvm.lifetime.start.p0(i64 8, ptr %4) #7
  call void @llvm.lifetime.start.p0(i64 8, ptr %5) #7
  call void @llvm.lifetime.start.p0(i64 72, ptr %6) #7
  call void @llvm.lifetime.start.p0(i64 8, ptr %7) #7
  call void @llvm.lifetime.start.p0(i64 8, ptr %8) #7
  call void @llvm.lifetime.start.p0(i64 4, ptr %9) #7
  call void @llvm.lifetime.start.p0(i64 2, ptr %10) #7
  %11 = call ptr @table_open(i32 noundef 2604, i32 noundef 3)
  store ptr %11, ptr %3, align 8
  %12 = getelementptr inbounds [1 x %struct.ScanKeyData], ptr %6, i64 0, i64 0
  %13 = load i32, ptr %2, align 4
  %14 = call i64 @ObjectIdGetDatum(i32 noundef %13)
  call void @ScanKeyInit(ptr noundef %12, i16 noundef signext 1, i16 noundef zeroext 3, i32 noundef 184, i64 noundef %14)
  %15 = load ptr, ptr %3, align 8
  %16 = getelementptr inbounds [1 x %struct.ScanKeyData], ptr %6, i64 0, i64 0
  %17 = call ptr @systable_beginscan(ptr noundef %15, i32 noundef 2657, i1 noundef zeroext true, ptr noundef null, i32 noundef 1, ptr noundef %16)
  store ptr %17, ptr %7, align 8
  %18 = load ptr, ptr %7, align 8
  %19 = call ptr @systable_getnext(ptr noundef %18)
  store ptr %19, ptr %8, align 8
  %20 = load ptr, ptr %8, align 8
  %21 = icmp ne ptr %20, null
  br i1 %21, label %34, label %22

22:                                               ; preds = %1
  br label %23

23:                                               ; preds = %22
  br i1 true, label %24, label %26

24:                                               ; preds = %23
  %25 = call zeroext i1 @errstart_cold(i32 noundef 21, ptr noundef null) #8
  br i1 %25, label %28, label %31

26:                                               ; preds = %23
  %27 = call zeroext i1 @errstart(i32 noundef 21, ptr noundef null)
  br i1 %27, label %28, label %31

28:                                               ; preds = %26, %24
  %29 = load i32, ptr %2, align 4
  %30 = call i32 (ptr, ...) @errmsg_internal(ptr noundef @.str.3, i32 noundef %29)
  call void @errfinish(ptr noundef @.str.1, i32 noundef 293, ptr noundef @__func__.RemoveAttrDefaultById)
  br label %31

31:                                               ; preds = %28, %26, %24
  unreachable

32:                                               ; No predecessors!
  br label %33

33:                                               ; preds = %32
  br label %34

34:                                               ; preds = %33, %1
  %35 = load ptr, ptr %8, align 8
  %36 = call ptr @GETSTRUCT(ptr noundef %35)
  %37 = getelementptr inbounds nuw %struct.FormData_pg_attrdef, ptr %36, i32 0, i32 1
  %38 = load i32, ptr %37, align 4
  store i32 %38, ptr %9, align 4
  %39 = load ptr, ptr %8, align 8
  %40 = call ptr @GETSTRUCT(ptr noundef %39)
  %41 = getelementptr inbounds nuw %struct.FormData_pg_attrdef, ptr %40, i32 0, i32 2
  %42 = load i16, ptr %41, align 4
  store i16 %42, ptr %10, align 2
  %43 = load i32, ptr %9, align 4
  %44 = call ptr @relation_open(i32 noundef %43, i32 noundef 8)
  store ptr %44, ptr %5, align 8
  %45 = load ptr, ptr %3, align 8
  %46 = load ptr, ptr %8, align 8
  %47 = getelementptr inbounds nuw %struct.HeapTupleData, ptr %46, i32 0, i32 1
  call void @CatalogTupleDelete(ptr noundef %45, ptr noundef %47)
  %48 = load ptr, ptr %7, align 8
  call void @systable_endscan(ptr noundef %48)
  %49 = load ptr, ptr %3, align 8
  call void @table_close(ptr noundef %49, i32 noundef 3)
  %50 = call ptr @table_open(i32 noundef 1249, i32 noundef 3)
  store ptr %50, ptr %4, align 8
  %51 = load i32, ptr %9, align 4
  %52 = call i64 @ObjectIdGetDatum(i32 noundef %51)
  %53 = load i16, ptr %10, align 2
  %54 = call i64 @Int16GetDatum(i16 noundef signext %53)
  %55 = call ptr @SearchSysCacheCopy(i32 noundef 7, i64 noundef %52, i64 noundef %54, i64 noundef 0, i64 noundef 0)
  store ptr %55, ptr %8, align 8
  %56 = load ptr, ptr %8, align 8
  %57 = icmp ne ptr %56, null
  br i1 %57, label %72, label %58

58:                                               ; preds = %34
  br label %59

59:                                               ; preds = %58
  br i1 true, label %60, label %62

60:                                               ; preds = %59
  %61 = call zeroext i1 @errstart_cold(i32 noundef 21, ptr noundef null) #8
  br i1 %61, label %64, label %69

62:                                               ; preds = %59
  %63 = call zeroext i1 @errstart(i32 noundef 21, ptr noundef null)
  br i1 %63, label %64, label %69

64:                                               ; preds = %62, %60
  %65 = load i16, ptr %10, align 2
  %66 = sext i16 %65 to i32
  %67 = load i32, ptr %9, align 4
  %68 = call i32 (ptr, ...) @errmsg_internal(ptr noundef @.str, i32 noundef %66, i32 noundef %67)
  call void @errfinish(ptr noundef @.str.1, i32 noundef 315, ptr noundef @__func__.RemoveAttrDefaultById)
  br label %69

69:                                               ; preds = %64, %62, %60
  unreachable

70:                                               ; No predecessors!
  br label %71

71:                                               ; preds = %70
  br label %72

72:                                               ; preds = %71, %34
  %73 = load ptr, ptr %8, align 8
  %74 = call ptr @GETSTRUCT(ptr noundef %73)
  %75 = getelementptr inbounds nuw %struct.FormData_pg_attribute, ptr %74, i32 0, i32 12
  store i8 0, ptr %75, align 1
  %76 = load ptr, ptr %4, align 8
  %77 = load ptr, ptr %8, align 8
  %78 = getelementptr inbounds nuw %struct.HeapTupleData, ptr %77, i32 0, i32 1
  %79 = load ptr, ptr %8, align 8
  call void @CatalogTupleUpdate(ptr noundef %76, ptr noundef %78, ptr noundef %79)
  %80 = load ptr, ptr %4, align 8
  call void @table_close(ptr noundef %80, i32 noundef 3)
  %81 = load ptr, ptr %5, align 8
  call void @relation_close(ptr noundef %81, i32 noundef 0)
  call void @llvm.lifetime.end.p0(i64 2, ptr %10) #7
  call void @llvm.lifetime.end.p0(i64 4, ptr %9) #7
  call void @llvm.lifetime.end.p0(i64 8, ptr %8) #7
  call void @llvm.lifetime.end.p0(i64 8, ptr %7) #7
  call void @llvm.lifetime.end.p0(i64 72, ptr %6) #7
  call void @llvm.lifetime.end.p0(i64 8, ptr %5) #7
  call void @llvm.lifetime.end.p0(i64 8, ptr %4) #7
  call void @llvm.lifetime.end.p0(i64 8, ptr %3) #7
  ret void
}