; Function Attrs: nounwind uwtable
define dso_local void @RemoveAttrDefaultById(i32 noundef %0) local_unnamed_addr #0 {
  %2 = alloca [1 x %struct.ScanKeyData], align 16
  call void @llvm.lifetime.start.p0(i64 72, ptr nonnull %2) #6
  %3 = tail call ptr @table_open(i32 noundef 2604, i32 noundef 3) #6
  %4 = zext i32 %0 to i64
  call void @ScanKeyInit(ptr noundef nonnull %2, i16 noundef signext 1, i16 noundef zeroext 3, i32 noundef 184, i64 noundef %4) #6
  %5 = call ptr @systable_beginscan(ptr noundef %3, i32 noundef 2657, i1 noundef zeroext true, ptr noundef null, i32 noundef 1, ptr noundef nonnull %2) #6
  %6 = call ptr @systable_getnext(ptr noundef %5) #6
  %.not = icmp eq ptr %6, null
  br i1 %.not, label %7, label %10

7:                                                ; preds = %1
  %8 = call zeroext i1 @errstart_cold(i32 noundef 21, ptr noundef null) #7
  call void @llvm.assume(i1 %8)
  %9 = call i32 (ptr, ...) @errmsg_internal(ptr noundef nonnull @.str.3, i32 noundef %0) #6
  call void @errfinish(ptr noundef nonnull @.str.1, i32 noundef 293, ptr noundef nonnull @__func__.RemoveAttrDefaultById) #6
  unreachable

10:                                               ; preds = %1
  %11 = getelementptr i8, ptr %6, i64 16
  %.val25 = load ptr, ptr %11, align 8
  %12 = getelementptr inbounds nuw i8, ptr %.val25, i64 22
  %13 = load i8, ptr %12, align 2
  %14 = zext i8 %13 to i64
  %15 = getelementptr inbounds nuw i8, ptr %.val25, i64 %14
  %16 = getelementptr inbounds nuw i8, ptr %15, i64 4
  %17 = load i32, ptr %16, align 4
  %18 = getelementptr inbounds nuw i8, ptr %15, i64 8
  %19 = load i16, ptr %18, align 4
  %20 = call ptr @relation_open(i32 noundef %17, i32 noundef 8) #6
  %21 = getelementptr inbounds nuw i8, ptr %6, i64 4
  call void @CatalogTupleDelete(ptr noundef %3, ptr noundef nonnull %21) #6
  call void @systable_endscan(ptr noundef %5) #6
  call void @table_close(ptr noundef %3, i32 noundef 3) #6
  %22 = call ptr @table_open(i32 noundef 1249, i32 noundef 3) #6
  %23 = zext i32 %17 to i64
  %24 = sext i16 %19 to i64
  %25 = call ptr @SearchSysCacheCopy(i32 noundef 7, i64 noundef %23, i64 noundef %24, i64 noundef 0, i64 noundef 0) #6
  %.not23 = icmp eq ptr %25, null
  br i1 %.not23, label %26, label %30

26:                                               ; preds = %10
  %27 = call zeroext i1 @errstart_cold(i32 noundef 21, ptr noundef null) #7
  call void @llvm.assume(i1 %27)
  %28 = sext i16 %19 to i32
  %29 = call i32 (ptr, ...) @errmsg_internal(ptr noundef nonnull @.str, i32 noundef %28, i32 noundef %17) #6
  call void @errfinish(ptr noundef nonnull @.str.1, i32 noundef 315, ptr noundef nonnull @__func__.RemoveAttrDefaultById) #6
  unreachable

30:                                               ; preds = %10
  %31 = getelementptr i8, ptr %25, i64 16
  %.val = load ptr, ptr %31, align 8
  %32 = getelementptr inbounds nuw i8, ptr %.val, i64 22
  %33 = load i8, ptr %32, align 2
  %34 = zext i8 %33 to i64
  %35 = getelementptr inbounds nuw i8, ptr %.val, i64 %34
  %36 = getelementptr inbounds nuw i8, ptr %35, i64 87
  store i8 0, ptr %36, align 1
  %37 = getelementptr inbounds nuw i8, ptr %25, i64 4
  call void @CatalogTupleUpdate(ptr noundef %22, ptr noundef nonnull %37, ptr noundef nonnull %25) #6
  call void @table_close(ptr noundef %22, i32 noundef 3) #6
  call void @relation_close(ptr noundef %20, i32 noundef 0) #6
  call void @llvm.lifetime.end.p0(i64 72, ptr nonnull %2) #6
  ret void
}